target datalayout = "e-m:e-p270:32:32-p271:32:32-p272:64:64-i64:64-f80:128-n8:16:32:64-S128"
target triple = "x86_64-pc-linux-gnu"

@.str = private unnamed_addr constant [5 x i8] c"%d%d\00", align 1
@.str.1 = private unnamed_addr constant [3 x i8] c"%d\00", align 1
@.str.2 = private unnamed_addr constant [4 x i8] c"%d \00", align 1

; Function Attrs: noinline nounwind uwtable
define dso_local void @make(i32* %0, i32 %1, i32 %2) #0 {
  %4 = alloca i32*, align 8
  %5 = alloca i32, align 4
  %6 = alloca i32, align 4
  %7 = alloca i32*, align 8
  %8 = alloca [100 x i32], align 16
  %9 = alloca i32, align 4
  store i32* %0, i32** %4, align 8
  store i32 %1, i32* %5, align 4
  store i32 %2, i32* %6, align 4
  %10 = bitcast [100 x i32]* %8 to i8*
  call void @llvm.memset.p0i8.i64(i8* align 16 %10, i8 0, i64 400, i1 false)
  %11 = getelementptr inbounds [100 x i32], [100 x i32]* %8, i64 0, i64 0
  store i32* %11, i32** %7, align 8
  %12 = load i32, i32* %5, align 4
  %13 = load i32, i32* %6, align 4
  %14 = sub nsw i32 %12, %13
  store i32 %14, i32* %9, align 4
  br label %15

15:                                               ; preds = %27, %3
  %16 = load i32, i32* %9, align 4
  %17 = load i32, i32* %5, align 4
  %18 = icmp slt i32 %16, %17
  br i1 %18, label %19, label %30

19:                                               ; preds = %15
  %20 = load i32*, i32** %4, align 8
  %21 = load i32, i32* %9, align 4
  %22 = sext i32 %21 to i64
  %23 = getelementptr inbounds i32, i32* %20, i64 %22
  %24 = load i32, i32* %23, align 4
  %25 = load i32*, i32** %7, align 8
  %26 = getelementptr inbounds i32, i32* %25, i32 1
  store i32* %26, i32** %7, align 8
  store i32 %24, i32* %25, align 4
  br label %27

27:                                               ; preds = %19
  %28 = load i32, i32* %9, align 4
  %29 = add nsw i32 %28, 1
  store i32 %29, i32* %9, align 4
  br label %15

30:                                               ; preds = %15
  %31 = load i32, i32* %5, align 4
  %32 = load i32, i32* %6, align 4
  %33 = sub nsw i32 %31, %32
  %34 = sub nsw i32 %33, 1
  store i32 %34, i32* %9, align 4
  br label %35

35:                                               ; preds = %51, %30
  %36 = load i32, i32* %9, align 4
  %37 = icmp sge i32 %36, 0
  br i1 %37, label %38, label %54

38:                                               ; preds = %35
  %39 = load i32*, i32** %4, align 8
  %40 = load i32, i32* %9, align 4
  %41 = sext i32 %40 to i64
  %42 = getelementptr inbounds i32, i32* %39, i64 %41
  %43 = load i32, i32* %42, align 4
  %44 = load i32*, i32** %4, align 8
  %45 = load i32, i32* %9, align 4
  %46 = sext i32 %45 to i64
  %47 = getelementptr inbounds i32, i32* %44, i64 %46
  %48 = load i32, i32* %6, align 4
  %49 = sext i32 %48 to i64
  %50 = getelementptr inbounds i32, i32* %47, i64 %49
  store i32 %43, i32* %50, align 4
  br label %51

51:                                               ; preds = %38
  %52 = load i32, i32* %9, align 4
  %53 = add nsw i32 %52, -1
  store i32 %53, i32* %9, align 4
  br label %35

54:                                               ; preds = %35
  %55 = getelementptr inbounds [100 x i32], [100 x i32]* %8, i64 0, i64 0
  store i32* %55, i32** %7, align 8
  store i32 0, i32* %9, align 4
  br label %56

56:                                               ; preds = %70, %54
  %57 = load i32, i32* %9, align 4
  %58 = load i32, i32* %6, align 4
  %59 = icmp slt i32 %57, %58
  br i1 %59, label %60, label %73

60:                                               ; preds = %56
  %61 = load i32*, i32** %7, align 8
  %62 = load i32, i32* %9, align 4
  %63 = sext i32 %62 to i64
  %64 = getelementptr inbounds i32, i32* %61, i64 %63
  %65 = load i32, i32* %64, align 4
  %66 = load i32*, i32** %4, align 8
  %67 = load i32, i32* %9, align 4
  %68 = sext i32 %67 to i64
  %69 = getelementptr inbounds i32, i32* %66, i64 %68
  store i32 %65, i32* %69, align 4
  br label %70

70:                                               ; preds = %60
  %71 = load i32, i32* %9, align 4
  %72 = add nsw i32 %71, 1
  store i32 %72, i32* %9, align 4
  br label %56

73:                                               ; preds = %56
  ret void
}

; Function Attrs: noinline nounwind uwtable
define dso_local i32 @main() #0 {
  %1 = alloca i32, align 4
  %2 = alloca i32*, align 8
  %3 = alloca [100 x i32], align 16
  %4 = alloca i32, align 4
  %5 = alloca i32, align 4
  %6 = alloca i32, align 4
  store i32 0, i32* %1, align 4
  %7 = call i32 (i8*, ...) @__isoc99_scanf(i8* getelementptr inbounds ([5 x i8], [5 x i8]* @.str, i64 0, i64 0), i32* %5, i32* %6)
  store i32 0, i32* %4, align 4
  br label %8

8:                                                ; preds = %17, %0
  %9 = load i32, i32* %4, align 4
  %10 = load i32, i32* %5, align 4
  %11 = icmp slt i32 %9, %10
  br i1 %11, label %12, label %20

12:                                               ; preds = %8
  %13 = load i32, i32* %4, align 4
  %14 = sext i32 %13 to i64
  %15 = getelementptr inbounds [100 x i32], [100 x i32]* %3, i64 0, i64 %14
  %16 = call i32 (i8*, ...) @__isoc99_scanf(i8* getelementptr inbounds ([3 x i8], [3 x i8]* @.str.1, i64 0, i64 0), i32* %15)
  br label %17

17:                                               ; preds = %12
  %18 = load i32, i32* %4, align 4
  %19 = add nsw i32 %18, 1
  store i32 %19, i32* %4, align 4
  br label %8

20:                                               ; preds = %8
  %21 = getelementptr inbounds [100 x i32], [100 x i32]* %3, i64 0, i64 0
  %22 = load i32, i32* %5, align 4
  %23 = load i32, i32* %6, align 4
  call void @make(i32* %21, i32 %22, i32 %23)
  %24 = getelementptr inbounds [100 x i32], [100 x i32]* %3, i64 0, i64 0
  store i32* %24, i32** %2, align 8
  store i32 0, i32* %4, align 4
  br label %25

25:                                               ; preds = %35, %20
  %26 = load i32, i32* %4, align 4
  %27 = load i32, i32* %5, align 4
  %28 = sub nsw i32 %27, 1
  %29 = icmp slt i32 %26, %28
  br i1 %29, label %30, label %38

30:                                               ; preds = %25
  %31 = load i32*, i32** %2, align 8
  %32 = getelementptr inbounds i32, i32* %31, i32 1
  store i32* %32, i32** %2, align 8
  %33 = load i32, i32* %31, align 4
  %34 = call i32 (i8*, ...) @printf(i8* getelementptr inbounds ([4 x i8], [4 x i8]* @.str.2, i64 0, i64 0), i32 %33)
  br label %35

35:                                               ; preds = %30
  %36 = load i32, i32* %4, align 4
  %37 = add nsw i32 %36, 1
  store i32 %37, i32* %4, align 4
  br label %25

38:                                               ; preds = %25
  %39 = load i32*, i32** %2, align 8
  %40 = load i32, i32* %39, align 4
  %41 = call i32 (i8*, ...) @printf(i8* getelementptr inbounds ([3 x i8], [3 x i8]* @.str.1, i64 0, i64 0), i32 %40)
  %42 = load i32, i32* %1, align 4
  ret i32 %42
}